; Function Attrs: mustprogress nounwind uwtable
define internal fastcc void @_ZN12_GLOBAL__N_111SimInstance10ff_state_tD2Ev(ptr noundef nonnull align 8 dereferenceable(928) %0) unnamed_addr #3 align 2 personality ptr @__gxx_personality_v0 {
  %2 = getelementptr inbounds i8, ptr %0, i64 72
  tail call void @_ZN5Yosys6FfDataD2Ev(ptr noundef nonnull align 8 dereferenceable(856) %2) #31
  %3 = getelementptr inbounds i8, ptr %0, i64 40
  %4 = load ptr, ptr %3, align 8
  %.not.i.i.i.i = icmp eq ptr %4, null
  br i1 %.not.i.i.i.i, label %_ZN5Yosys5RTLIL5ConstD2Ev.exit, label %5

5:                                                ; preds = %1
  tail call void @_ZdlPv(ptr noundef nonnull %4) #32
  br label %_ZN5Yosys5RTLIL5ConstD2Ev.exit

_ZN5Yosys5RTLIL5ConstD2Ev.exit:                   ; preds = %1, %5
  %6 = getelementptr inbounds i8, ptr %0, i64 8
  %7 = load ptr, ptr %6, align 8
  %.not.i.i.i.i1 = icmp eq ptr %7, null
  br i1 %.not.i.i.i.i1, label %_ZN5Yosys5RTLIL5ConstD2Ev.exit2, label %8

8:                                                ; preds = %_ZN5Yosys5RTLIL5ConstD2Ev.exit
  tail call void @_ZdlPv(ptr noundef nonnull %7) #32
  br label %_ZN5Yosys5RTLIL5ConstD2Ev.exit2

_ZN5Yosys5RTLIL5ConstD2Ev.exit2:                  ; preds = %_ZN5Yosys5RTLIL5ConstD2Ev.exit, %8
  ret void
}